target datalayout = "e-m:e-p270:32:32-p271:32:32-p272:64:64-i64:64-i128:128-f80:128-n8:16:32:64-S128"
target triple = "x86_64-unknown-linux-gnu"

%"class.icu_75::MaybeStackArray.0" = type { ptr, i32, i8, [3 x ptr] }
%"class.icu_75::numparse::impl::NumberParseMatcher" = type { ptr }
%"class.icu_75::UnicodeString" = type { %"class.icu_75::Replaceable", %"union.icu_75::UnicodeString::StackBufferOrFields" }
%"class.icu_75::Replaceable" = type { %"class.icu_75::UObject" }
%"class.icu_75::UObject" = type { ptr }
%"union.icu_75::UnicodeString::StackBufferOrFields" = type { %struct.anon.1, [32 x i8] }
%struct.anon.1 = type { i16, i32, i32, ptr }
%"class.icu_75::numparse::impl::AffixPatternMatcher" = type { %"class.icu_75::numparse::impl::ArraySeriesMatcher.base", [4 x i8], %"class.icu_75::numparse::impl::CompactUnicodeString" }
%"class.icu_75::numparse::impl::ArraySeriesMatcher.base" = type <{ %"class.icu_75::numparse::impl::SeriesMatcher", %"class.icu_75::MaybeStackArray.0", i32 }>
%"class.icu_75::numparse::impl::SeriesMatcher" = type { %"class.icu_75::numparse::impl::CompositionMatcher" }
%"class.icu_75::numparse::impl::CompositionMatcher" = type { %"class.icu_75::numparse::impl::NumberParseMatcher" }
%"class.icu_75::numparse::impl::CompactUnicodeString" = type { %"class.icu_75::MaybeStackArray.3" }
%"class.icu_75::MaybeStackArray.3" = type <{ ptr, i32, i8, i8, [4 x i16], [2 x i8] }>
%"class.icu_75::ConstChar16Ptr" = type { ptr }
%"class.icu_75::numparse::impl::AffixMatcher" = type <{ %"class.icu_75::numparse::impl::NumberParseMatcher", ptr, ptr, i32, [4 x i8] }>
%"class.icu_75::numparse::impl::ParsedNumber" = type { %"class.icu_75::number::impl::DecimalQuantity", i32, i32, %"class.icu_75::UnicodeString", %"class.icu_75::UnicodeString", [4 x i16] }
%"class.icu_75::number::impl::DecimalQuantity" = type <{ %"class.icu_75::IFixedDecimal", i8, [3 x i8], i32, i32, i8, i8, [2 x i8], double, i32, i32, i32, i32, %union.anon, i8, i8, [6 x i8] }>
%"class.icu_75::IFixedDecimal" = type { ptr }
%union.anon = type { %struct.anon.5 }
%struct.anon.5 = type { ptr, i32 }

; Function Attrs: mustprogress nounwind uwtable
define linkonce_odr void @_ZN6icu_7514ConstChar16PtrD2Ev(ptr noundef nonnull align 8 dereferenceable(8) %this) unnamed_addr #0 comdat align 2 {
entry:
  %this.addr = alloca ptr, align 8
  store ptr %this, ptr %this.addr, align 8
  %this1 = load ptr, ptr %this.addr, align 8
  %p_ = getelementptr inbounds %"class.icu_75::ConstChar16Ptr", ptr %this1, i32 0, i32 0
  %0 = load ptr, ptr %p_, align 8
  call void asm sideeffect "", "rm,~{memory},~{dirflag},~{fpsr},~{flags}"(ptr %0) #13, !srcloc !10
  ret void
}

; Function Attrs: mustprogress nounwind uwtable
define linkonce_odr void @_ZN6icu_7514ConstChar16PtrC2EPKDs(ptr noundef nonnull align 8 dereferenceable(8) %this, ptr noundef %p) unnamed_addr #0 comdat align 2 {
entry:
  %this.addr = alloca ptr, align 8
  %p.addr = alloca ptr, align 8
  store ptr %this, ptr %this.addr, align 8
  store ptr %p, ptr %p.addr, align 8
  %this1 = load ptr, ptr %this.addr, align 8
  %p_ = getelementptr inbounds %"class.icu_75::ConstChar16Ptr", ptr %this1, i32 0, i32 0
  %0 = load ptr, ptr %p.addr, align 8
  store ptr %0, ptr %p_, align 8
  ret void
}

; Function Attrs: mustprogress nounwind uwtable
define linkonce_odr noundef ptr @_ZNK6icu_7515MaybeStackArrayIDsLi4EE8getAliasEv(ptr noundef nonnull align 8 dereferenceable(22) %this) #0 comdat align 2 {
entry:
  %this.addr = alloca ptr, align 8
  store ptr %this, ptr %this.addr, align 8
  %this1 = load ptr, ptr %this.addr, align 8
  %ptr = getelementptr inbounds %"class.icu_75::MaybeStackArray.3", ptr %this1, i32 0, i32 0
  %0 = load ptr, ptr %ptr, align 8
  ret ptr %0
}

; Function Attrs: mustprogress uwtable
define linkonce_odr void @_ZNK6icu_758numparse4impl20CompactUnicodeStringILi4EE22toAliasedUnicodeStringEv(ptr noalias sret(%"class.icu_75::UnicodeString") align 8 %agg.result, ptr noundef nonnull align 8 dereferenceable(24) %this) #1 comdat align 2 personality ptr @__gxx_personality_v0 {
entry:
  %result.ptr = alloca ptr, align 8
  %this.addr = alloca ptr, align 8
  %agg.tmp = alloca %"class.icu_75::ConstChar16Ptr", align 8
  %exn.slot = alloca ptr, align 8
  %ehselector.slot = alloca i32, align 4
  store ptr %agg.result, ptr %result.ptr, align 8
  store ptr %this, ptr %this.addr, align 8
  %this1 = load ptr, ptr %this.addr, align 8
  %fBuffer = getelementptr inbounds %"class.icu_75::numparse::impl::CompactUnicodeString", ptr %this1, i32 0, i32 0
  %call = call noundef ptr @_ZNK6icu_7515MaybeStackArrayIDsLi4EE8getAliasEv(ptr noundef nonnull align 8 dereferenceable(22) %fBuffer)
  call void @_ZN6icu_7514ConstChar16PtrC2EPKDs(ptr noundef nonnull align 8 dereferenceable(8) %agg.tmp, ptr noundef %call)
  invoke void @_ZN6icu_7513UnicodeStringC1EaNS_14ConstChar16PtrEi(ptr noundef nonnull align 8 dereferenceable(64) %agg.result, i8 noundef signext 1, ptr noundef %agg.tmp, i32 noundef -1)
          to label %invoke.cont unwind label %lpad

invoke.cont:                                      ; preds = %entry
  call void @_ZN6icu_7514ConstChar16PtrD2Ev(ptr noundef nonnull align 8 dereferenceable(8) %agg.tmp) #13
  ret void

lpad:                                             ; preds = %entry
  %0 = landingpad { ptr, i32 }
          cleanup
  %1 = extractvalue { ptr, i32 } %0, 0
  store ptr %1, ptr %exn.slot, align 8
  %2 = extractvalue { ptr, i32 } %0, 1
  store i32 %2, ptr %ehselector.slot, align 4
  call void @_ZN6icu_7514ConstChar16PtrD2Ev(ptr noundef nonnull align 8 dereferenceable(8) %agg.tmp) #13
  br label %eh.resume

eh.resume:                                        ; preds = %lpad
  %exn = load ptr, ptr %exn.slot, align 8
  %sel = load i32, ptr %ehselector.slot, align 4
  %lpad.val = insertvalue { ptr, i32 } poison, ptr %exn, 0
  %lpad.val2 = insertvalue { ptr, i32 } %lpad.val, i32 %sel, 1
  resume { ptr, i32 } %lpad.val2
}

; Function Attrs: mustprogress uwtable
define void @_ZNK6icu_758numparse4impl19AffixPatternMatcher10getPatternEv(ptr noalias sret(%"class.icu_75::UnicodeString") align 8 %agg.result, ptr noundef nonnull align 8 dereferenceable(80) %this) #1 align 2 {
entry:
  %result.ptr = alloca ptr, align 8
  %this.addr = alloca ptr, align 8
  store ptr %agg.result, ptr %result.ptr, align 8
  store ptr %this, ptr %this.addr, align 8
  %this1 = load ptr, ptr %this.addr, align 8
  %fPattern = getelementptr inbounds %"class.icu_75::numparse::impl::AffixPatternMatcher", ptr %this1, i32 0, i32 2
  call void @_ZNK6icu_758numparse4impl20CompactUnicodeStringILi4EE22toAliasedUnicodeStringEv(ptr sret(%"class.icu_75::UnicodeString") align 8 %agg.result, ptr noundef nonnull align 8 dereferenceable(24) %fPattern)
  ret void
}

; Function Attrs: mustprogress nounwind uwtable
define linkonce_odr noundef signext i8 @_ZNK6icu_7513UnicodeString7isBogusEv(ptr noundef nonnull align 8 dereferenceable(64) %this) #0 comdat align 2 {
entry:
  %this.addr = alloca ptr, align 8
  store ptr %this, ptr %this.addr, align 8
  %this1 = load ptr, ptr %this.addr, align 8
  %fUnion = getelementptr inbounds %"class.icu_75::UnicodeString", ptr %this1, i32 0, i32 1
  %fLengthAndFlags = getelementptr inbounds %struct.anon.1, ptr %fUnion, i32 0, i32 0
  %0 = load i16, ptr %fLengthAndFlags, align 8
  %conv = sext i16 %0 to i32
  %and = and i32 %conv, 1
  %conv2 = trunc i32 %and to i8
  ret i8 %conv2
}

; Function Attrs: mustprogress uwtable
define noundef zeroext i1 @_ZNK6icu_758numparse4impl12AffixMatcher5matchERNS_13StringSegmentERNS1_12ParsedNumberER10UErrorCode(ptr noundef nonnull align 8 dereferenceable(28) %this, ptr noundef nonnull align 8 dereferenceable(17) %segment, ptr noundef nonnull align 8 dereferenceable(216) %result, ptr noundef nonnull align 4 dereferenceable(4) %status) unnamed_addr #1 align 2 {
entry:
  %retval = alloca i1, align 1
  %this.addr = alloca ptr, align 8
  %segment.addr = alloca ptr, align 8
  %result.addr = alloca ptr, align 8
  %status.addr = alloca ptr, align 8
  %initialOffset = alloca i32, align 4
  %maybeMore = alloca i8, align 1
  %ref.tmp = alloca %"class.icu_75::UnicodeString", align 8
  %initialOffset25 = alloca i32, align 4
  %maybeMore27 = alloca i8, align 1
  %ref.tmp36 = alloca %"class.icu_75::UnicodeString", align 8
  store ptr %this, ptr %this.addr, align 8
  store ptr %segment, ptr %segment.addr, align 8
  store ptr %result, ptr %result.addr, align 8
  store ptr %status, ptr %status.addr, align 8
  %this1 = load ptr, ptr %this.addr, align 8
  %0 = load ptr, ptr %result.addr, align 8
  %call = call noundef zeroext i1 @_ZNK6icu_758numparse4impl12ParsedNumber10seenNumberEv(ptr noundef nonnull align 8 dereferenceable(216) %0)
  br i1 %call, label %if.else, label %if.then

if.then:                                          ; preds = %entry
  %1 = load ptr, ptr %result.addr, align 8
  %prefix = getelementptr inbounds %"class.icu_75::numparse::impl::ParsedNumber", ptr %1, i32 0, i32 3
  %call2 = call noundef signext i8 @_ZNK6icu_7513UnicodeString7isBogusEv(ptr noundef nonnull align 8 dereferenceable(64) %prefix)
  %tobool = icmp ne i8 %call2, 0
  br i1 %tobool, label %lor.lhs.false, label %if.then3

lor.lhs.false:                                    ; preds = %if.then
  %fPrefix = getelementptr inbounds %"class.icu_75::numparse::impl::AffixMatcher", ptr %this1, i32 0, i32 1
  %2 = load ptr, ptr %fPrefix, align 8
  %cmp = icmp eq ptr %2, null
  br i1 %cmp, label %if.then3, label %if.end

if.then3:                                         ; preds = %lor.lhs.false, %if.then
  store i1 false, ptr %retval, align 1
  br label %return

if.end:                                           ; preds = %lor.lhs.false
  %3 = load ptr, ptr %segment.addr, align 8
  %call4 = call noundef i32 @_ZNK6icu_7513StringSegment9getOffsetEv(ptr noundef nonnull align 8 dereferenceable(17) %3)
  store i32 %call4, ptr %initialOffset, align 4
  %fPrefix5 = getelementptr inbounds %"class.icu_75::numparse::impl::AffixMatcher", ptr %this1, i32 0, i32 1
  %4 = load ptr, ptr %fPrefix5, align 8
  %5 = load ptr, ptr %segment.addr, align 8
  %6 = load ptr, ptr %result.addr, align 8
  %7 = load ptr, ptr %status.addr, align 8
  %vtable = load ptr, ptr %4, align 8
  %vfn = getelementptr inbounds ptr, ptr %vtable, i64 3
  %8 = load ptr, ptr %vfn, align 8
  %call6 = call noundef zeroext i1 %8(ptr noundef nonnull align 8 dereferenceable(8) %4, ptr noundef nonnull align 8 dereferenceable(17) %5, ptr noundef nonnull align 8 dereferenceable(216) %6, ptr noundef nonnull align 4 dereferenceable(4) %7)
  %frombool = zext i1 %call6 to i8
  store i8 %frombool, ptr %maybeMore, align 1
  %9 = load i32, ptr %initialOffset, align 4
  %10 = load ptr, ptr %segment.addr, align 8
  %call7 = call noundef i32 @_ZNK6icu_7513StringSegment9getOffsetEv(ptr noundef nonnull align 8 dereferenceable(17) %10)
  %cmp8 = icmp ne i32 %9, %call7
  br i1 %cmp8, label %if.then9, label %if.end13

if.then9:                                         ; preds = %if.end
  %fPrefix10 = getelementptr inbounds %"class.icu_75::numparse::impl::AffixMatcher", ptr %this1, i32 0, i32 1
  %11 = load ptr, ptr %fPrefix10, align 8
  call void @_ZNK6icu_758numparse4impl19AffixPatternMatcher10getPatternEv(ptr sret(%"class.icu_75::UnicodeString") align 8 %ref.tmp, ptr noundef nonnull align 8 dereferenceable(80) %11)
  %12 = load ptr, ptr %result.addr, align 8
  %prefix11 = getelementptr inbounds %"class.icu_75::numparse::impl::ParsedNumber", ptr %12, i32 0, i32 3
  %call12 = call noundef nonnull align 8 dereferenceable(64) ptr @_ZN6icu_7513UnicodeStringaSEOS0_(ptr noundef nonnull align 8 dereferenceable(64) %prefix11, ptr noundef nonnull align 8 dereferenceable(64) %ref.tmp) #13
  call void @_ZN6icu_7513UnicodeStringD1Ev(ptr noundef nonnull align 8 dereferenceable(64) %ref.tmp) #13
  br label %if.end13

if.end13:                                         ; preds = %if.then9, %if.end
  %13 = load i8, ptr %maybeMore, align 1
  %tobool14 = trunc i8 %13 to i1
  store i1 %tobool14, ptr %retval, align 1
  br label %return

if.else:                                          ; preds = %entry
  %14 = load ptr, ptr %result.addr, align 8
  %suffix = getelementptr inbounds %"class.icu_75::numparse::impl::ParsedNumber", ptr %14, i32 0, i32 4
  %call15 = call noundef signext i8 @_ZNK6icu_7513UnicodeString7isBogusEv(ptr noundef nonnull align 8 dereferenceable(64) %suffix)
  %tobool16 = icmp ne i8 %call15, 0
  br i1 %tobool16, label %lor.lhs.false17, label %if.then23

lor.lhs.false17:                                  ; preds = %if.else
  %fSuffix = getelementptr inbounds %"class.icu_75::numparse::impl::AffixMatcher", ptr %this1, i32 0, i32 2
  %15 = load ptr, ptr %fSuffix, align 8
  %cmp18 = icmp eq ptr %15, null
  br i1 %cmp18, label %if.then23, label %lor.lhs.false19

lor.lhs.false19:                                  ; preds = %lor.lhs.false17
  %fPrefix20 = getelementptr inbounds %"class.icu_75::numparse::impl::AffixMatcher", ptr %this1, i32 0, i32 1
  %16 = load ptr, ptr %fPrefix20, align 8
  %17 = load ptr, ptr %result.addr, align 8
  %prefix21 = getelementptr inbounds %"class.icu_75::numparse::impl::ParsedNumber", ptr %17, i32 0, i32 3
  %call22 = call noundef zeroext i1 @_ZN12_GLOBAL__N_17matchedEPKN6icu_758numparse4impl19AffixPatternMatcherERKNS0_13UnicodeStringE(ptr noundef %16, ptr noundef nonnull align 8 dereferenceable(64) %prefix21)
  br i1 %call22, label %if.end24, label %if.then23

if.then23:                                        ; preds = %lor.lhs.false19, %lor.lhs.false17, %if.else
  store i1 false, ptr %retval, align 1
  br label %return

if.end24:                                         ; preds = %lor.lhs.false19
  %18 = load ptr, ptr %segment.addr, align 8
  %call26 = call noundef i32 @_ZNK6icu_7513StringSegment9getOffsetEv(ptr noundef nonnull align 8 dereferenceable(17) %18)
  store i32 %call26, ptr %initialOffset25, align 4
  %fSuffix28 = getelementptr inbounds %"class.icu_75::numparse::impl::AffixMatcher", ptr %this1, i32 0, i32 2
  %19 = load ptr, ptr %fSuffix28, align 8
  %20 = load ptr, ptr %segment.addr, align 8
  %21 = load ptr, ptr %result.addr, align 8
  %22 = load ptr, ptr %status.addr, align 8
  %vtable29 = load ptr, ptr %19, align 8
  %vfn30 = getelementptr inbounds ptr, ptr %vtable29, i64 3
  %23 = load ptr, ptr %vfn30, align 8
  %call31 = call noundef zeroext i1 %23(ptr noundef nonnull align 8 dereferenceable(8) %19, ptr noundef nonnull align 8 dereferenceable(17) %20, ptr noundef nonnull align 8 dereferenceable(216) %21, ptr noundef nonnull align 4 dereferenceable(4) %22)
  %frombool32 = zext i1 %call31 to i8
  store i8 %frombool32, ptr %maybeMore27, align 1
  %24 = load i32, ptr %initialOffset25, align 4
  %25 = load ptr, ptr %segment.addr, align 8
  %call33 = call noundef i32 @_ZNK6icu_7513StringSegment9getOffsetEv(ptr noundef nonnull align 8 dereferenceable(17) %25)
  %cmp34 = icmp ne i32 %24, %call33
  br i1 %cmp34, label %if.then35, label %if.end40

if.then35:                                        ; preds = %if.end24
  %fSuffix37 = getelementptr inbounds %"class.icu_75::numparse::impl::AffixMatcher", ptr %this1, i32 0, i32 2
  %26 = load ptr, ptr %fSuffix37, align 8
  call void @_ZNK6icu_758numparse4impl19AffixPatternMatcher10getPatternEv(ptr sret(%"class.icu_75::UnicodeString") align 8 %ref.tmp36, ptr noundef nonnull align 8 dereferenceable(80) %26)
  %27 = load ptr, ptr %result.addr, align 8
  %suffix38 = getelementptr inbounds %"class.icu_75::numparse::impl::ParsedNumber", ptr %27, i32 0, i32 4
  %call39 = call noundef nonnull align 8 dereferenceable(64) ptr @_ZN6icu_7513UnicodeStringaSEOS0_(ptr noundef nonnull align 8 dereferenceable(64) %suffix38, ptr noundef nonnull align 8 dereferenceable(64) %ref.tmp36) #13
  call void @_ZN6icu_7513UnicodeStringD1Ev(ptr noundef nonnull align 8 dereferenceable(64) %ref.tmp36) #13
  br label %if.end40

if.end40:                                         ; preds = %if.then35, %if.end24
  %28 = load i8, ptr %maybeMore27, align 1
  %tobool41 = trunc i8 %28 to i1
  store i1 %tobool41, ptr %retval, align 1
  br label %return

return:                                           ; preds = %if.end40, %if.then23, %if.end13, %if.then3
  %29 = load i1, ptr %retval, align 1
  ret i1 %29
}