; Function Attrs: mustprogress uwtable
define noundef zeroext i1 @_ZNK6icu_758numparse4impl12AffixMatcher5matchERNS_13StringSegmentERNS1_12ParsedNumberER10UErrorCode(ptr nocapture noundef nonnull readonly align 8 dereferenceable(28) %this, ptr noundef nonnull align 8 dereferenceable(17) %segment, ptr noundef nonnull align 8 dereferenceable(216) %result, ptr noundef nonnull align 4 dereferenceable(4) %status) unnamed_addr #1 align 2 personality ptr @__gxx_personality_v0 {
entry:
  %agg.tmp.i.i16 = alloca %"class.icu_75::ConstChar16Ptr", align 8
  %agg.tmp.i.i = alloca %"class.icu_75::ConstChar16Ptr", align 8
  %ref.tmp = alloca %"class.icu_75::UnicodeString", align 8
  %ref.tmp36 = alloca %"class.icu_75::UnicodeString", align 8
  %call = tail call noundef zeroext i1 @_ZNK6icu_758numparse4impl12ParsedNumber10seenNumberEv(ptr noundef nonnull align 8 dereferenceable(216) %result)
  br i1 %call, label %if.else, label %if.then

if.then:                                          ; preds = %entry
  %prefix = getelementptr inbounds i8, ptr %result, i64 80
  %fUnion.i = getelementptr inbounds i8, ptr %result, i64 88
  %0 = load i16, ptr %fUnion.i, align 8
  %conv2.i20 = and i16 %0, 1
  %tobool.not = icmp eq i16 %conv2.i20, 0
  br i1 %tobool.not, label %return, label %lor.lhs.false

lor.lhs.false:                                    ; preds = %if.then
  %fPrefix = getelementptr inbounds i8, ptr %this, i64 8
  %1 = load ptr, ptr %fPrefix, align 8
  %cmp = icmp eq ptr %1, null
  br i1 %cmp, label %return, label %if.end

if.end:                                           ; preds = %lor.lhs.false
  %call4 = tail call noundef i32 @_ZNK6icu_7513StringSegment9getOffsetEv(ptr noundef nonnull align 8 dereferenceable(17) %segment)
  %2 = load ptr, ptr %fPrefix, align 8
  %vtable = load ptr, ptr %2, align 8
  %vfn = getelementptr inbounds i8, ptr %vtable, i64 24
  %3 = load ptr, ptr %vfn, align 8
  %call6 = tail call noundef zeroext i1 %3(ptr noundef nonnull align 8 dereferenceable(8) %2, ptr noundef nonnull align 8 dereferenceable(17) %segment, ptr noundef nonnull align 8 dereferenceable(216) %result, ptr noundef nonnull align 4 dereferenceable(4) %status)
  %call7 = tail call noundef i32 @_ZNK6icu_7513StringSegment9getOffsetEv(ptr noundef nonnull align 8 dereferenceable(17) %segment)
  %cmp8.not = icmp eq i32 %call4, %call7
  br i1 %cmp8.not, label %return, label %if.then9

if.then9:                                         ; preds = %if.end
  %4 = load ptr, ptr %fPrefix, align 8
  %fPattern.i = getelementptr inbounds i8, ptr %4, i64 56
  call void @llvm.lifetime.start.p0(i64 8, ptr nonnull %agg.tmp.i.i), !noalias !71
  %5 = load ptr, ptr %fPattern.i, align 8, !noalias !74
  store ptr %5, ptr %agg.tmp.i.i, align 8, !noalias !74
  invoke void @_ZN6icu_7513UnicodeStringC1EaNS_14ConstChar16PtrEi(ptr noundef nonnull align 8 dereferenceable(64) %ref.tmp, i8 noundef signext 1, ptr noundef nonnull %agg.tmp.i.i, i32 noundef -1)
          to label %_ZNK6icu_758numparse4impl19AffixPatternMatcher10getPatternEv.exit unwind label %lpad.i.i

common.resume:                                    ; preds = %lpad.i.i18, %lpad.i.i
  %common.resume.op = phi { ptr, i32 } [ %6, %lpad.i.i ], [ %16, %lpad.i.i18 ]
  resume { ptr, i32 } %common.resume.op

lpad.i.i:                                         ; preds = %if.then9
  %6 = landingpad { ptr, i32 }
          cleanup
  %7 = load ptr, ptr %agg.tmp.i.i, align 8, !noalias !74
  call void asm sideeffect "", "rm,~{memory},~{dirflag},~{fpsr},~{flags}"(ptr %7) #16, !srcloc !12
  br label %common.resume

_ZNK6icu_758numparse4impl19AffixPatternMatcher10getPatternEv.exit: ; preds = %if.then9
  %8 = load ptr, ptr %agg.tmp.i.i, align 8, !noalias !74
  call void asm sideeffect "", "rm,~{memory},~{dirflag},~{fpsr},~{flags}"(ptr %8) #16, !srcloc !12
  call void @llvm.lifetime.end.p0(i64 8, ptr nonnull %agg.tmp.i.i), !noalias !71
  %call12 = call noundef nonnull align 8 dereferenceable(64) ptr @_ZN6icu_7513UnicodeStringaSEOS0_(ptr noundef nonnull align 8 dereferenceable(64) %prefix, ptr noundef nonnull align 8 dereferenceable(64) %ref.tmp) #16
  br label %return.sink.split

if.else:                                          ; preds = %entry
  %suffix = getelementptr inbounds i8, ptr %result, i64 144
  %fUnion.i14 = getelementptr inbounds i8, ptr %result, i64 152
  %9 = load i16, ptr %fUnion.i14, align 8
  %conv2.i1521 = and i16 %9, 1
  %tobool16.not = icmp eq i16 %conv2.i1521, 0
  br i1 %tobool16.not, label %return, label %lor.lhs.false17

lor.lhs.false17:                                  ; preds = %if.else
  %fSuffix = getelementptr inbounds i8, ptr %this, i64 16
  %10 = load ptr, ptr %fSuffix, align 8
  %cmp18 = icmp eq ptr %10, null
  br i1 %cmp18, label %return, label %lor.lhs.false19

lor.lhs.false19:                                  ; preds = %lor.lhs.false17
  %fPrefix20 = getelementptr inbounds i8, ptr %this, i64 8
  %11 = load ptr, ptr %fPrefix20, align 8
  %prefix21 = getelementptr inbounds i8, ptr %result, i64 80
  %call22 = tail call fastcc noundef zeroext i1 @_ZN12_GLOBAL__N_17matchedEPKN6icu_758numparse4impl19AffixPatternMatcherERKNS0_13UnicodeStringE(ptr noundef %11, ptr noundef nonnull align 8 dereferenceable(64) %prefix21)
  br i1 %call22, label %if.end24, label %return

if.end24:                                         ; preds = %lor.lhs.false19
  %call26 = tail call noundef i32 @_ZNK6icu_7513StringSegment9getOffsetEv(ptr noundef nonnull align 8 dereferenceable(17) %segment)
  %12 = load ptr, ptr %fSuffix, align 8
  %vtable29 = load ptr, ptr %12, align 8
  %vfn30 = getelementptr inbounds i8, ptr %vtable29, i64 24
  %13 = load ptr, ptr %vfn30, align 8
  %call31 = tail call noundef zeroext i1 %13(ptr noundef nonnull align 8 dereferenceable(8) %12, ptr noundef nonnull align 8 dereferenceable(17) %segment, ptr noundef nonnull align 8 dereferenceable(216) %result, ptr noundef nonnull align 4 dereferenceable(4) %status)
  %call33 = tail call noundef i32 @_ZNK6icu_7513StringSegment9getOffsetEv(ptr noundef nonnull align 8 dereferenceable(17) %segment)
  %cmp34.not = icmp eq i32 %call26, %call33
  br i1 %cmp34.not, label %return, label %if.then35

if.then35:                                        ; preds = %if.end24
  %14 = load ptr, ptr %fSuffix, align 8
  %fPattern.i17 = getelementptr inbounds i8, ptr %14, i64 56
  call void @llvm.lifetime.start.p0(i64 8, ptr nonnull %agg.tmp.i.i16), !noalias !77
  %15 = load ptr, ptr %fPattern.i17, align 8, !noalias !80
  store ptr %15, ptr %agg.tmp.i.i16, align 8, !noalias !80
  invoke void @_ZN6icu_7513UnicodeStringC1EaNS_14ConstChar16PtrEi(ptr noundef nonnull align 8 dereferenceable(64) %ref.tmp36, i8 noundef signext 1, ptr noundef nonnull %agg.tmp.i.i16, i32 noundef -1)
          to label %_ZNK6icu_758numparse4impl19AffixPatternMatcher10getPatternEv.exit19 unwind label %lpad.i.i18

lpad.i.i18:                                       ; preds = %if.then35
  %16 = landingpad { ptr, i32 }
          cleanup
  %17 = load ptr, ptr %agg.tmp.i.i16, align 8, !noalias !80
  call void asm sideeffect "", "rm,~{memory},~{dirflag},~{fpsr},~{flags}"(ptr %17) #16, !srcloc !12
  br label %common.resume

_ZNK6icu_758numparse4impl19AffixPatternMatcher10getPatternEv.exit19: ; preds = %if.then35
  %18 = load ptr, ptr %agg.tmp.i.i16, align 8, !noalias !80
  call void asm sideeffect "", "rm,~{memory},~{dirflag},~{fpsr},~{flags}"(ptr %18) #16, !srcloc !12
  call void @llvm.lifetime.end.p0(i64 8, ptr nonnull %agg.tmp.i.i16), !noalias !77
  %call39 = call noundef nonnull align 8 dereferenceable(64) ptr @_ZN6icu_7513UnicodeStringaSEOS0_(ptr noundef nonnull align 8 dereferenceable(64) %suffix, ptr noundef nonnull align 8 dereferenceable(64) %ref.tmp36) #16
  br label %return.sink.split

return.sink.split:                                ; preds = %_ZNK6icu_758numparse4impl19AffixPatternMatcher10getPatternEv.exit, %_ZNK6icu_758numparse4impl19AffixPatternMatcher10getPatternEv.exit19
  %ref.tmp36.sink = phi ptr [ %ref.tmp36, %_ZNK6icu_758numparse4impl19AffixPatternMatcher10getPatternEv.exit19 ], [ %ref.tmp, %_ZNK6icu_758numparse4impl19AffixPatternMatcher10getPatternEv.exit ]
  %retval.0.ph = phi i1 [ %call31, %_ZNK6icu_758numparse4impl19AffixPatternMatcher10getPatternEv.exit19 ], [ %call6, %_ZNK6icu_758numparse4impl19AffixPatternMatcher10getPatternEv.exit ]
  call void @_ZN6icu_7513UnicodeStringD1Ev(ptr noundef nonnull align 8 dereferenceable(64) %ref.tmp36.sink) #16
  br label %return

return:                                           ; preds = %return.sink.split, %if.end24, %if.else, %lor.lhs.false17, %lor.lhs.false19, %if.end, %if.then, %lor.lhs.false
  %retval.0 = phi i1 [ false, %lor.lhs.false ], [ false, %if.then ], [ %call6, %if.end ], [ false, %lor.lhs.false19 ], [ false, %lor.lhs.false17 ], [ false, %if.else ], [ %call31, %if.end24 ], [ %retval.0.ph, %return.sink.split ]
  ret i1 %retval.0
}